target datalayout = "e-m:e-p270:32:32-p271:32:32-p272:64:64-i64:64-i128:128-f80:128-n8:16:32:64-S128"
target triple = "x86_64-pc-linux-gnu"

%"class.vcg::Point3" = type { [3 x float] }

; Function Attrs: mustprogress uwtable
define { <2 x float>, float } @_ZNK17RichParameterList10getPoint3mERK7QString(ptr noundef nonnull align 8 dereferenceable(24) %0, ptr noundef nonnull align 8 dereferenceable(8) %1) #13 align 2 {
  %3 = alloca %"class.vcg::Point3", align 4
  %4 = alloca ptr, align 8
  %5 = alloca ptr, align 8
  %6 = alloca { <2 x float>, float }, align 8
  %7 = alloca { <2 x float>, float }, align 8
  store ptr %0, ptr %4, align 8
  store ptr %1, ptr %5, align 8
  %8 = load ptr, ptr %4, align 8
  %9 = load ptr, ptr %5, align 8
  %10 = call noundef nonnull align 8 dereferenceable(56) ptr @_ZNK17RichParameterList18getParameterByNameERK7QString(ptr noundef nonnull align 8 dereferenceable(24) %8, ptr noundef nonnull align 8 dereferenceable(8) %9)
  %11 = call noundef nonnull align 8 dereferenceable(8) ptr @_ZNK13RichParameter5valueEv(ptr noundef nonnull align 8 dereferenceable(56) %10)
  %12 = load ptr, ptr %11, align 8
  %13 = getelementptr inbounds ptr, ptr %12, i64 7
  %14 = load ptr, ptr %13, align 8
  %15 = call { <2 x float>, float } %14(ptr noundef nonnull align 8 dereferenceable(8) %11)
  %16 = getelementptr inbounds %"class.vcg::Point3", ptr %3, i32 0, i32 0
  store { <2 x float>, float } %15, ptr %6, align 8
  call void @llvm.memcpy.p0.p0.i64(ptr align 4 %16, ptr align 8 %6, i64 12, i1 false)
  %17 = getelementptr inbounds %"class.vcg::Point3", ptr %3, i32 0, i32 0
  call void @llvm.memcpy.p0.p0.i64(ptr align 8 %7, ptr align 4 %17, i64 12, i1 false)
  %18 = load { <2 x float>, float }, ptr %7, align 8
  ret { <2 x float>, float } %18
}