; Function Attrs: mustprogress uwtable
define { <2 x float>, float } @_ZNK17RichParameterList10getPoint3mERK7QString(ptr noundef nonnull align 8 dereferenceable(24) %0, ptr noundef nonnull align 8 dereferenceable(8) %1) local_unnamed_addr #13 align 2 {
  %3 = tail call noundef nonnull align 8 dereferenceable(56) ptr @_ZNK17RichParameterList18getParameterByNameERK7QString(ptr noundef nonnull align 8 dereferenceable(24) %0, ptr noundef nonnull align 8 dereferenceable(8) %1)
  %4 = tail call noundef nonnull align 8 dereferenceable(8) ptr @_ZNK13RichParameter5valueEv(ptr noundef nonnull align 8 dereferenceable(56) %3)
  %5 = load ptr, ptr %4, align 8
  %6 = getelementptr inbounds i8, ptr %5, i64 56
  %7 = load ptr, ptr %6, align 8
  %8 = tail call { <2 x float>, float } %7(ptr noundef nonnull align 8 dereferenceable(8) %4)
  ret { <2 x float>, float } %8
}